target datalayout = "e-m:e-p270:32:32-p271:32:32-p272:64:64-i64:64-i128:128-f80:128-n8:16:32:64-S128"
target triple = "x86_64-pc-linux-gnu"

%struct.FT_ListRec_ = type { ptr, ptr }
%struct.FT_CharMapRec_ = type { ptr, i32, i16, i16 }
%struct.T1_FaceRec_ = type { %struct.FT_FaceRec_, %struct.T1_FontRec_, ptr, ptr, ptr, [2 x %struct.FT_CharMapRec_], [2 x ptr], ptr, i32, i32, i32, ptr, ptr }
%struct.FT_FaceRec_ = type { i64, i64, i64, i64, i64, ptr, ptr, i32, ptr, i32, ptr, %struct.FT_Generic_, %struct.FT_BBox_, i16, i16, i16, i16, i16, i16, i16, i16, ptr, ptr, ptr, ptr, ptr, ptr, %struct.FT_ListRec_, %struct.FT_Generic_, ptr, ptr }
%struct.FT_BBox_ = type { i64, i64, i64, i64 }
%struct.FT_Generic_ = type { ptr, ptr }
%struct.T1_FontRec_ = type { %struct.PS_FontInfoRec_, %struct.PS_FontExtraRec_, %struct.PS_PrivateRec_, ptr, i32, %struct.T1_EncodingRecRec_, ptr, ptr, ptr, i32, ptr, ptr, ptr, i32, ptr, ptr, ptr, i8, i8, %struct.FT_Matrix_, %struct.FT_Vector_, %struct.FT_BBox_, i64, i64 }
%struct.PS_FontInfoRec_ = type { ptr, ptr, ptr, ptr, ptr, i64, i8, i16, i16 }
%struct.PS_FontExtraRec_ = type { i16 }
%struct.PS_PrivateRec_ = type { i32, i32, i8, i8, i8, i8, [14 x i16], [10 x i16], [14 x i16], [10 x i16], i64, i32, i32, [1 x i16], [1 x i16], i8, i8, i8, i8, [13 x i16], [13 x i16], i64, i64, i64, [2 x i16] }
%struct.T1_EncodingRecRec_ = type { i32, i32, i32, ptr, ptr }
%struct.FT_Matrix_ = type { i64, i64, i64, i64 }
%struct.FT_Vector_ = type { i64, i64 }
%struct.PS_BlendRec_ = type { i32, i32, [4 x ptr], [16 x ptr], [4 x %struct.PS_DesignMap_], ptr, ptr, [17 x ptr], [17 x ptr], i64, [17 x ptr], [16 x i32], i32 }
%struct.PS_DesignMap_ = type { i8, ptr, ptr }
%struct.T1_Loader_ = type { %struct.T1_ParserRec_, i32, %struct.PS_TableRec_, i32, %struct.PS_TableRec_, %struct.PS_TableRec_, %struct.PS_TableRec_, i32, %struct.PS_TableRec_, ptr, i8, i32 }
%struct.T1_ParserRec_ = type { %struct.PS_ParserRec_, ptr, ptr, i64, ptr, i64, i8, i8, i8 }
%struct.PS_ParserRec_ = type { ptr, ptr, ptr, i32, ptr, %struct.PS_Parser_FuncsRec_ }
%struct.PS_Parser_FuncsRec_ = type { ptr, ptr, ptr, ptr, ptr, ptr, ptr, ptr, ptr, ptr, ptr, ptr, ptr }
%struct.PS_TableRec_ = type { ptr, i64, i64, i64, i32, ptr, ptr, ptr, %struct.PS_Table_FuncsRec_ }
%struct.PS_Table_FuncsRec_ = type { ptr, ptr, ptr, ptr }
%struct.T1_TokenRec_ = type { ptr, ptr, i32 }

; Function Attrs: nounwind uwtable
define internal void @parse_weight_vector(ptr noundef %0, ptr noundef %1) #0 {
  %3 = alloca ptr, align 8
  %4 = alloca ptr, align 8
  %5 = alloca ptr, align 8
  %6 = alloca ptr, align 8
  %7 = alloca [16 x %struct.T1_TokenRec_], align 16
  %8 = alloca i32, align 4
  %9 = alloca i32, align 4
  %10 = alloca ptr, align 8
  %11 = alloca ptr, align 8
  %12 = alloca ptr, align 8
  %13 = alloca ptr, align 8
  %14 = alloca i32, align 4
  %15 = alloca ptr, align 8
  %16 = alloca ptr, align 8
  store ptr %0, ptr %3, align 8
  store ptr %1, ptr %4, align 8
  %17 = load ptr, ptr %3, align 8
  store ptr %17, ptr %5, align 8
  %18 = load ptr, ptr %4, align 8
  store ptr %18, ptr %6, align 8
  store i32 0, ptr %9, align 4
  %19 = load ptr, ptr %3, align 8
  %20 = getelementptr inbounds %struct.FT_FaceRec_, ptr %19, i32 0, i32 25
  %21 = load ptr, ptr %20, align 8
  store ptr %21, ptr %10, align 8
  %22 = load ptr, ptr %6, align 8
  %23 = getelementptr inbounds %struct.T1_Loader_, ptr %22, i32 0, i32 0
  store ptr %23, ptr %11, align 8
  %24 = load ptr, ptr %5, align 8
  %25 = getelementptr inbounds %struct.T1_FaceRec_, ptr %24, i32 0, i32 7
  %26 = load ptr, ptr %25, align 8
  store ptr %26, ptr %12, align 8
  %27 = load ptr, ptr %11, align 8
  %28 = getelementptr inbounds %struct.T1_ParserRec_, ptr %27, i32 0, i32 0
  %29 = getelementptr inbounds %struct.PS_ParserRec_, ptr %28, i32 0, i32 5
  %30 = getelementptr inbounds %struct.PS_Parser_FuncsRec_, ptr %29, i32 0, i32 10
  %31 = load ptr, ptr %30, align 8
  %32 = load ptr, ptr %11, align 8
  %33 = getelementptr inbounds %struct.T1_ParserRec_, ptr %32, i32 0, i32 0
  %34 = getelementptr inbounds [16 x %struct.T1_TokenRec_], ptr %7, i64 0, i64 0
  call void %31(ptr noundef %33, ptr noundef %34, i32 noundef 16, ptr noundef %8)
  %35 = load i32, ptr %8, align 4
  %36 = icmp slt i32 %35, 0
  br i1 %36, label %37, label %38

37:                                               ; preds = %2
  store i32 162, ptr %9, align 4
  br label %171

38:                                               ; preds = %2
  %39 = load i32, ptr %8, align 4
  %40 = icmp eq i32 %39, 0
  br i1 %40, label %44, label %41

41:                                               ; preds = %38
  %42 = load i32, ptr %8, align 4
  %43 = icmp sgt i32 %42, 16
  br i1 %43, label %44, label %47

44:                                               ; preds = %41, %38
  br label %45

45:                                               ; preds = %44
  br label %46

46:                                               ; preds = %45
  store i32 3, ptr %9, align 4
  br label %171

47:                                               ; preds = %41
  %48 = load ptr, ptr %12, align 8
  %49 = icmp ne ptr %48, null
  br i1 %49, label %50, label %55

50:                                               ; preds = %47
  %51 = load ptr, ptr %12, align 8
  %52 = getelementptr inbounds %struct.PS_BlendRec_, ptr %51, i32 0, i32 0
  %53 = load i32, ptr %52, align 8
  %54 = icmp ne i32 %53, 0
  br i1 %54, label %66, label %55

55:                                               ; preds = %50, %47
  %56 = load ptr, ptr %5, align 8
  %57 = load i32, ptr %8, align 4
  %58 = call i32 @t1_allocate_blend(ptr noundef %56, i32 noundef %57, i32 noundef 0)
  store i32 %58, ptr %9, align 4
  %59 = load i32, ptr %9, align 4
  %60 = icmp ne i32 %59, 0
  br i1 %60, label %61, label %62

61:                                               ; preds = %55
  br label %171

62:                                               ; preds = %55
  %63 = load ptr, ptr %5, align 8
  %64 = getelementptr inbounds %struct.T1_FaceRec_, ptr %63, i32 0, i32 7
  %65 = load ptr, ptr %64, align 8
  store ptr %65, ptr %12, align 8
  br label %78

66:                                               ; preds = %50
  %67 = load ptr, ptr %12, align 8
  %68 = getelementptr inbounds %struct.PS_BlendRec_, ptr %67, i32 0, i32 0
  %69 = load i32, ptr %68, align 8
  %70 = load i32, ptr %8, align 4
  %71 = icmp ne i32 %69, %70
  br i1 %71, label %72, label %77

72:                                               ; preds = %66
  br label %73

73:                                               ; preds = %72
  br label %74

74:                                               ; preds = %73
  br label %75

75:                                               ; preds = %74
  br label %76

76:                                               ; preds = %75
  store i32 3, ptr %9, align 4
  br label %171

77:                                               ; preds = %66
  br label %78

78:                                               ; preds = %77, %62
  %79 = load ptr, ptr %12, align 8
  %80 = getelementptr inbounds %struct.PS_BlendRec_, ptr %79, i32 0, i32 5
  %81 = load ptr, ptr %80, align 8
  %82 = icmp ne ptr %81, null
  br i1 %82, label %95, label %83

83:                                               ; preds = %78
  %84 = load ptr, ptr %10, align 8
  %85 = load i32, ptr %8, align 4
  %86 = mul nsw i32 %85, 2
  %87 = sext i32 %86 to i64
  %88 = call ptr @ft_mem_qrealloc(ptr noundef %84, i64 noundef 8, i64 noundef 0, i64 noundef %87, ptr noundef null, ptr noundef %9)
  %89 = load ptr, ptr %12, align 8
  %90 = getelementptr inbounds %struct.PS_BlendRec_, ptr %89, i32 0, i32 5
  store ptr %88, ptr %90, align 8
  %91 = load i32, ptr %9, align 4
  %92 = icmp ne i32 %91, 0
  br i1 %92, label %93, label %94

93:                                               ; preds = %83
  br label %171

94:                                               ; preds = %83
  br label %95

95:                                               ; preds = %94, %78
  %96 = load ptr, ptr %12, align 8
  %97 = getelementptr inbounds %struct.PS_BlendRec_, ptr %96, i32 0, i32 5
  %98 = load ptr, ptr %97, align 8
  %99 = load i32, ptr %8, align 4
  %100 = sext i32 %99 to i64
  %101 = getelementptr inbounds i64, ptr %98, i64 %100
  %102 = load ptr, ptr %12, align 8
  %103 = getelementptr inbounds %struct.PS_BlendRec_, ptr %102, i32 0, i32 6
  store ptr %101, ptr %103, align 8
  %104 = load ptr, ptr %11, align 8
  %105 = getelementptr inbounds %struct.T1_ParserRec_, ptr %104, i32 0, i32 0
  %106 = getelementptr inbounds %struct.PS_ParserRec_, ptr %105, i32 0, i32 0
  %107 = load ptr, ptr %106, align 8
  store ptr %107, ptr %15, align 8
  %108 = load ptr, ptr %11, align 8
  %109 = getelementptr inbounds %struct.T1_ParserRec_, ptr %108, i32 0, i32 0
  %110 = getelementptr inbounds %struct.PS_ParserRec_, ptr %109, i32 0, i32 2
  %111 = load ptr, ptr %110, align 8
  store ptr %111, ptr %16, align 8
  br label %112

112:                                              ; preds = %95
  br label %113

113:                                              ; preds = %112
  store i32 0, ptr %14, align 4
  br label %114

114:                                              ; preds = %157, %113
  %115 = load i32, ptr %14, align 4
  %116 = load i32, ptr %8, align 4
  %117 = icmp slt i32 %115, %116
  br i1 %117, label %118, label %160

118:                                              ; preds = %114
  %119 = getelementptr inbounds [16 x %struct.T1_TokenRec_], ptr %7, i64 0, i64 0
  %120 = load i32, ptr %14, align 4
  %121 = sext i32 %120 to i64
  %122 = getelementptr inbounds %struct.T1_TokenRec_, ptr %119, i64 %121
  store ptr %122, ptr %13, align 8
  %123 = load ptr, ptr %13, align 8
  %124 = getelementptr inbounds %struct.T1_TokenRec_, ptr %123, i32 0, i32 0
  %125 = load ptr, ptr %124, align 8
  %126 = load ptr, ptr %11, align 8
  %127 = getelementptr inbounds %struct.T1_ParserRec_, ptr %126, i32 0, i32 0
  %128 = getelementptr inbounds %struct.PS_ParserRec_, ptr %127, i32 0, i32 0
  store ptr %125, ptr %128, align 8
  %129 = load ptr, ptr %13, align 8
  %130 = getelementptr inbounds %struct.T1_TokenRec_, ptr %129, i32 0, i32 1
  %131 = load ptr, ptr %130, align 8
  %132 = load ptr, ptr %11, align 8
  %133 = getelementptr inbounds %struct.T1_ParserRec_, ptr %132, i32 0, i32 0
  %134 = getelementptr inbounds %struct.PS_ParserRec_, ptr %133, i32 0, i32 2
  store ptr %131, ptr %134, align 8
  %135 = load ptr, ptr %11, align 8
  %136 = getelementptr inbounds %struct.T1_ParserRec_, ptr %135, i32 0, i32 0
  %137 = getelementptr inbounds %struct.PS_ParserRec_, ptr %136, i32 0, i32 5
  %138 = getelementptr inbounds %struct.PS_Parser_FuncsRec_, ptr %137, i32 0, i32 5
  %139 = load ptr, ptr %138, align 8
  %140 = load ptr, ptr %11, align 8
  %141 = getelementptr inbounds %struct.T1_ParserRec_, ptr %140, i32 0, i32 0
  %142 = call i64 %139(ptr noundef %141, i32 noundef 0)
  %143 = load ptr, ptr %12, align 8
  %144 = getelementptr inbounds %struct.PS_BlendRec_, ptr %143, i32 0, i32 5
  %145 = load ptr, ptr %144, align 8
  %146 = load i32, ptr %14, align 4
  %147 = sext i32 %146 to i64
  %148 = getelementptr inbounds i64, ptr %145, i64 %147
  store i64 %142, ptr %148, align 8
  %149 = load ptr, ptr %12, align 8
  %150 = getelementptr inbounds %struct.PS_BlendRec_, ptr %149, i32 0, i32 6
  %151 = load ptr, ptr %150, align 8
  %152 = load i32, ptr %14, align 4
  %153 = sext i32 %152 to i64
  %154 = getelementptr inbounds i64, ptr %151, i64 %153
  store i64 %142, ptr %154, align 8
  br label %155

155:                                              ; preds = %118
  br label %156

156:                                              ; preds = %155
  br label %157

157:                                              ; preds = %156
  %158 = load i32, ptr %14, align 4
  %159 = add nsw i32 %158, 1
  store i32 %159, ptr %14, align 4
  br label %114, !llvm.loop !54

160:                                              ; preds = %114
  br label %161

161:                                              ; preds = %160
  br label %162

162:                                              ; preds = %161
  %163 = load ptr, ptr %15, align 8
  %164 = load ptr, ptr %11, align 8
  %165 = getelementptr inbounds %struct.T1_ParserRec_, ptr %164, i32 0, i32 0
  %166 = getelementptr inbounds %struct.PS_ParserRec_, ptr %165, i32 0, i32 0
  store ptr %163, ptr %166, align 8
  %167 = load ptr, ptr %16, align 8
  %168 = load ptr, ptr %11, align 8
  %169 = getelementptr inbounds %struct.T1_ParserRec_, ptr %168, i32 0, i32 0
  %170 = getelementptr inbounds %struct.PS_ParserRec_, ptr %169, i32 0, i32 2
  store ptr %167, ptr %170, align 8
  br label %171

171:                                              ; preds = %162, %93, %76, %61, %46, %37
  %172 = load i32, ptr %9, align 4
  %173 = load ptr, ptr %11, align 8
  %174 = getelementptr inbounds %struct.T1_ParserRec_, ptr %173, i32 0, i32 0
  %175 = getelementptr inbounds %struct.PS_ParserRec_, ptr %174, i32 0, i32 3
  store i32 %172, ptr %175, align 8
  ret void
}