; Function Attrs: nounwind uwtable
define internal void @parse_weight_vector(ptr noundef %0, ptr noundef %1) #2 {
  %3 = alloca [16 x %struct.T1_TokenRec_], align 16
  %4 = alloca i32, align 4
  %5 = alloca i32, align 4
  store i32 0, ptr %5, align 4
  %6 = getelementptr inbounds i8, ptr %0, i64 184
  %7 = load ptr, ptr %6, align 8
  %8 = getelementptr inbounds i8, ptr %0, i64 848
  %9 = load ptr, ptr %8, align 8
  %10 = getelementptr inbounds i8, ptr %1, i64 120
  %11 = load ptr, ptr %10, align 8
  call void %11(ptr noundef %1, ptr noundef nonnull %3, i32 noundef 16, ptr noundef nonnull %4) #16
  %12 = load i32, ptr %4, align 4
  %13 = icmp slt i32 %12, 0
  br i1 %13, label %57, label %14

14:                                               ; preds = %2
  %15 = add nsw i32 %12, -17
  %or.cond = icmp ult i32 %15, -16
  br i1 %or.cond, label %57, label %16

16:                                               ; preds = %14
  %.not = icmp eq ptr %9, null
  br i1 %.not, label %19, label %17

17:                                               ; preds = %16
  %18 = load i32, ptr %9, align 8
  %.not41 = icmp eq i32 %18, 0
  br i1 %.not41, label %19, label %23

19:                                               ; preds = %17, %16
  %20 = call fastcc i32 @t1_allocate_blend(ptr noundef nonnull %0, i32 noundef %12, i32 noundef 0)
  store i32 %20, ptr %5, align 4
  %.not42 = icmp eq i32 %20, 0
  br i1 %.not42, label %21, label %57

21:                                               ; preds = %19
  %22 = load ptr, ptr %8, align 8
  %.pre49.pre = load i32, ptr %4, align 4
  br label %24

23:                                               ; preds = %17
  %.not43 = icmp eq i32 %18, %12
  br i1 %.not43, label %24, label %57

24:                                               ; preds = %23, %21
  %.pre49 = phi i32 [ %12, %23 ], [ %.pre49.pre, %21 ]
  %.0 = phi ptr [ %9, %23 ], [ %22, %21 ]
  %25 = getelementptr inbounds i8, ptr %.0, i64 264
  %26 = load ptr, ptr %25, align 8
  %.not44 = icmp eq ptr %26, null
  br i1 %.not44, label %27, label %32

27:                                               ; preds = %24
  %28 = shl nsw i32 %.pre49, 1
  %29 = sext i32 %28 to i64
  %30 = call ptr @ft_mem_qrealloc(ptr noundef %7, i64 noundef 8, i64 noundef 0, i64 noundef %29, ptr noundef null, ptr noundef nonnull %5) #16
  store ptr %30, ptr %25, align 8
  %31 = load i32, ptr %5, align 4
  %.not45 = icmp eq i32 %31, 0
  br i1 %.not45, label %._crit_edge48, label %57

._crit_edge48:                                    ; preds = %27
  %.pre = load i32, ptr %4, align 4
  br label %32

32:                                               ; preds = %._crit_edge48, %24
  %33 = phi i32 [ %.pre, %._crit_edge48 ], [ %.pre49, %24 ]
  %34 = phi ptr [ %30, %._crit_edge48 ], [ %26, %24 ]
  %35 = sext i32 %33 to i64
  %36 = getelementptr inbounds i64, ptr %34, i64 %35
  %37 = getelementptr inbounds i8, ptr %.0, i64 272
  store ptr %36, ptr %37, align 8
  %38 = load ptr, ptr %1, align 8
  %39 = getelementptr inbounds i8, ptr %1, i64 16
  %40 = load ptr, ptr %39, align 8
  %41 = icmp sgt i32 %33, 0
  br i1 %41, label %.lr.ph, label %._crit_edge

.lr.ph:                                           ; preds = %32
  %42 = getelementptr inbounds i8, ptr %1, i64 80
  br label %43

43:                                               ; preds = %.lr.ph, %43
  %indvars.iv = phi i64 [ 0, %.lr.ph ], [ %indvars.iv.next, %43 ]
  %44 = getelementptr inbounds %struct.T1_TokenRec_, ptr %3, i64 %indvars.iv
  %45 = load ptr, ptr %44, align 8
  store ptr %45, ptr %1, align 8
  %46 = getelementptr inbounds i8, ptr %44, i64 8
  %47 = load ptr, ptr %46, align 8
  store ptr %47, ptr %39, align 8
  %48 = load ptr, ptr %42, align 8
  %49 = call i64 %48(ptr noundef nonnull %1, i32 noundef 0) #16
  %50 = load ptr, ptr %25, align 8
  %51 = getelementptr inbounds i64, ptr %50, i64 %indvars.iv
  store i64 %49, ptr %51, align 8
  %52 = load ptr, ptr %37, align 8
  %53 = getelementptr inbounds i64, ptr %52, i64 %indvars.iv
  store i64 %49, ptr %53, align 8
  %indvars.iv.next = add nuw nsw i64 %indvars.iv, 1
  %54 = load i32, ptr %4, align 4
  %55 = sext i32 %54 to i64
  %56 = icmp slt i64 %indvars.iv.next, %55
  br i1 %56, label %43, label %._crit_edge.loopexit, !llvm.loop !50

._crit_edge.loopexit:                             ; preds = %43
  %.pre50.pre = load i32, ptr %5, align 4
  br label %._crit_edge

._crit_edge:                                      ; preds = %._crit_edge.loopexit, %32
  %.pre50 = phi i32 [ %.pre50.pre, %._crit_edge.loopexit ], [ 0, %32 ]
  store ptr %38, ptr %1, align 8
  store ptr %40, ptr %39, align 8
  br label %57

57:                                               ; preds = %23, %14, %2, %27, %19, %._crit_edge
  %58 = phi i32 [ %31, %27 ], [ %20, %19 ], [ %.pre50, %._crit_edge ], [ 162, %2 ], [ 3, %14 ], [ 3, %23 ]
  %59 = getelementptr inbounds i8, ptr %1, i64 24
  store i32 %58, ptr %59, align 8
  ret void
}